target datalayout = "e-m:e-p270:32:32-p271:32:32-p272:64:64-i64:64-i128:128-f80:128-n8:16:32:64-S128"
target triple = "x86_64-pc-linux-gnu"

%struct.GLNVGcontext = type { %struct.GLNVGshader, ptr, [2 x float], i32, i32, i32, i32, i32, i32, i32, i32, ptr, i32, i32, ptr, i32, i32, ptr, i32, i32, ptr, i32, i32, i32, i32, i32, i32, i32, %struct.GLNVGblend }
%struct.GLNVGshader = type { i32, i32, i32, [3 x i32] }
%struct.GLNVGblend = type { i32, i32, i32, i32 }

; Function Attrs: mustprogress nounwind uwtable
define internal void @_ZL19glnvg__renderCancelPv(ptr noundef %0) #7 {
  %2 = alloca ptr, align 8
  %3 = alloca ptr, align 8
  store ptr %0, ptr %2, align 8
  %4 = load ptr, ptr %2, align 8
  store ptr %4, ptr %3, align 8
  %5 = load ptr, ptr %3, align 8
  %6 = getelementptr inbounds %struct.GLNVGcontext, ptr %5, i32 0, i32 19
  store i32 0, ptr %6, align 4
  %7 = load ptr, ptr %3, align 8
  %8 = getelementptr inbounds %struct.GLNVGcontext, ptr %7, i32 0, i32 16
  store i32 0, ptr %8, align 4
  %9 = load ptr, ptr %3, align 8
  %10 = getelementptr inbounds %struct.GLNVGcontext, ptr %9, i32 0, i32 13
  store i32 0, ptr %10, align 4
  %11 = load ptr, ptr %3, align 8
  %12 = getelementptr inbounds %struct.GLNVGcontext, ptr %11, i32 0, i32 22
  store i32 0, ptr %12, align 4
  ret void
}