; Function Attrs: mustprogress nofree norecurse nosync nounwind willreturn memory(argmem: write) uwtable
define internal void @_ZL19glnvg__renderCancelPv(ptr nocapture noundef writeonly %0) #6 {
  %2 = getelementptr inbounds i8, ptr %0, i64 116
  store i32 0, ptr %2, align 4
  %3 = getelementptr inbounds i8, ptr %0, i64 100
  store i32 0, ptr %3, align 4
  %4 = getelementptr inbounds i8, ptr %0, i64 84
  store i32 0, ptr %4, align 4
  %5 = getelementptr inbounds i8, ptr %0, i64 132
  store i32 0, ptr %5, align 4
  ret void
}